; Function Attrs: mustprogress uwtable
define noundef i64 @_ZN8proxygen11HTTPSession12sendPriorityENS_5http214PriorityUpdateE(ptr noundef nonnull align 8 dereferenceable(2504) %this, i64 %pri.coerce0, i64 %pri.coerce1) unnamed_addr #3 align 2 {
entry:
  %call_.i.i = getelementptr inbounds i8, ptr %this, i64 992
  %0 = load ptr, ptr %call_.i.i, align 8
  %vtable = load ptr, ptr %0, align 8
  %vfn = getelementptr inbounds i8, ptr %vtable, i64 152
  %1 = load ptr, ptr %vfn, align 8
  %call2 = tail call noundef zeroext i1 %1(ptr noundef nonnull align 8 dereferenceable(8) %0)
  br i1 %call2, label %if.end, label %return

if.end:                                           ; preds = %entry
  %2 = load ptr, ptr %call_.i.i, align 8
  %vtable5 = load ptr, ptr %2, align 8
  %vfn6 = getelementptr inbounds i8, ptr %vtable5, i64 64
  %3 = load ptr, ptr %vfn6, align 8
  %call7 = tail call noundef i64 %3(ptr noundef nonnull align 8 dereferenceable(8) %2)
  %vtable8 = load ptr, ptr %this, align 8
  %vfn9 = getelementptr inbounds i8, ptr %vtable8, i64 312
  %4 = load ptr, ptr %vfn9, align 8
  %call10 = tail call noundef i64 %4(ptr noundef nonnull align 8 dereferenceable(2504) %this, i64 noundef %call7, i64 %pri.coerce0, i64 %pri.coerce1)
  br label %return

return:                                           ; preds = %entry, %if.end
  %retval.0 = phi i64 [ %call7, %if.end ], [ 0, %entry ]
  ret i64 %retval.0
}